target datalayout = "e-m:e-p270:32:32-p271:32:32-p272:64:64-i64:64-i128:128-f80:128-n8:16:32:64-S128"
target triple = "x86_64-pc-linux-gnu"

; Function Attrs: mustprogress nounwind uwtable
define internal noundef zeroext i8 @_ZL30mbedtls_ct_uchar_mask_of_rangehhh(i8 noundef zeroext %0, i8 noundef zeroext %1, i8 noundef zeroext %2) #0 {
  %4 = alloca i8, align 1
  %5 = alloca i8, align 1
  %6 = alloca i8, align 1
  %7 = alloca i32, align 4
  %8 = alloca i32, align 4
  store i8 %0, ptr %4, align 1, !tbaa !11
  store i8 %1, ptr %5, align 1, !tbaa !11
  store i8 %2, ptr %6, align 1, !tbaa !11
  call void @llvm.lifetime.start.p0(i64 4, ptr %7) #5
  %9 = load i8, ptr %6, align 1, !tbaa !11
  %10 = zext i8 %9 to i32
  %11 = load i8, ptr %4, align 1, !tbaa !11
  %12 = zext i8 %11 to i32
  %13 = sub i32 %10, %12
  %14 = lshr i32 %13, 8
  store i32 %14, ptr %7, align 4, !tbaa !14
  call void @llvm.lifetime.start.p0(i64 4, ptr %8) #5
  %15 = load i8, ptr %5, align 1, !tbaa !11
  %16 = zext i8 %15 to i32
  %17 = load i8, ptr %6, align 1, !tbaa !11
  %18 = zext i8 %17 to i32
  %19 = sub i32 %16, %18
  %20 = lshr i32 %19, 8
  store i32 %20, ptr %8, align 4, !tbaa !14
  %21 = load i32, ptr %7, align 4, !tbaa !14
  %22 = load i32, ptr %8, align 4, !tbaa !14
  %23 = or i32 %21, %22
  %24 = xor i32 %23, -1
  %25 = and i32 %24, 255
  %26 = trunc i32 %25 to i8
  call void @llvm.lifetime.end.p0(i64 4, ptr %8) #5
  call void @llvm.lifetime.end.p0(i64 4, ptr %7) #5
  ret i8 %26
}

; Function Attrs: mustprogress uwtable
define hidden noundef zeroext i8 @_Z26mbedtls_ct_base64_enc_charh(i8 noundef zeroext %0) #2 {
  %2 = alloca i8, align 1
  %3 = alloca i8, align 1
  store i8 %0, ptr %2, align 1, !tbaa !11
  call void @llvm.lifetime.start.p0(i64 1, ptr %3) #5
  store i8 0, ptr %3, align 1, !tbaa !11
  %4 = load i8, ptr %2, align 1, !tbaa !11
  %5 = call noundef zeroext i8 @_ZL30mbedtls_ct_uchar_mask_of_rangehhh(i8 noundef zeroext 0, i8 noundef zeroext 25, i8 noundef zeroext %4)
  %6 = zext i8 %5 to i32
  %7 = load i8, ptr %2, align 1, !tbaa !11
  %8 = zext i8 %7 to i32
  %9 = add nsw i32 65, %8
  %10 = and i32 %6, %9
  %11 = load i8, ptr %3, align 1, !tbaa !11
  %12 = zext i8 %11 to i32
  %13 = or i32 %12, %10
  %14 = trunc i32 %13 to i8
  store i8 %14, ptr %3, align 1, !tbaa !11
  %15 = load i8, ptr %2, align 1, !tbaa !11
  %16 = call noundef zeroext i8 @_ZL30mbedtls_ct_uchar_mask_of_rangehhh(i8 noundef zeroext 26, i8 noundef zeroext 51, i8 noundef zeroext %15)
  %17 = zext i8 %16 to i32
  %18 = load i8, ptr %2, align 1, !tbaa !11
  %19 = zext i8 %18 to i32
  %20 = add nsw i32 97, %19
  %21 = sub nsw i32 %20, 26
  %22 = and i32 %17, %21
  %23 = load i8, ptr %3, align 1, !tbaa !11
  %24 = zext i8 %23 to i32
  %25 = or i32 %24, %22
  %26 = trunc i32 %25 to i8
  store i8 %26, ptr %3, align 1, !tbaa !11
  %27 = load i8, ptr %2, align 1, !tbaa !11
  %28 = call noundef zeroext i8 @_ZL30mbedtls_ct_uchar_mask_of_rangehhh(i8 noundef zeroext 52, i8 noundef zeroext 61, i8 noundef zeroext %27)
  %29 = zext i8 %28 to i32
  %30 = load i8, ptr %2, align 1, !tbaa !11
  %31 = zext i8 %30 to i32
  %32 = add nsw i32 48, %31
  %33 = sub nsw i32 %32, 52
  %34 = and i32 %29, %33
  %35 = load i8, ptr %3, align 1, !tbaa !11
  %36 = zext i8 %35 to i32
  %37 = or i32 %36, %34
  %38 = trunc i32 %37 to i8
  store i8 %38, ptr %3, align 1, !tbaa !11
  %39 = load i8, ptr %2, align 1, !tbaa !11
  %40 = call noundef zeroext i8 @_ZL30mbedtls_ct_uchar_mask_of_rangehhh(i8 noundef zeroext 62, i8 noundef zeroext 62, i8 noundef zeroext %39)
  %41 = zext i8 %40 to i32
  %42 = and i32 %41, 43
  %43 = load i8, ptr %3, align 1, !tbaa !11
  %44 = zext i8 %43 to i32
  %45 = or i32 %44, %42
  %46 = trunc i32 %45 to i8
  store i8 %46, ptr %3, align 1, !tbaa !11
  %47 = load i8, ptr %2, align 1, !tbaa !11
  %48 = call noundef zeroext i8 @_ZL30mbedtls_ct_uchar_mask_of_rangehhh(i8 noundef zeroext 63, i8 noundef zeroext 63, i8 noundef zeroext %47)
  %49 = zext i8 %48 to i32
  %50 = and i32 %49, 47
  %51 = load i8, ptr %3, align 1, !tbaa !11
  %52 = zext i8 %51 to i32
  %53 = or i32 %52, %50
  %54 = trunc i32 %53 to i8
  store i8 %54, ptr %3, align 1, !tbaa !11
  %55 = load i8, ptr %3, align 1, !tbaa !11
  call void @llvm.lifetime.end.p0(i64 1, ptr %3) #5
  ret i8 %55
}