; Function Attrs: mustprogress nofree norecurse nosync nounwind willreturn memory(none) uwtable
define hidden noundef zeroext i8 @_Z26mbedtls_ct_base64_enc_charh(i8 noundef zeroext %0) local_unnamed_addr #2 {
  %2 = zext i8 %0 to i32
  %3 = sub nsw i32 25, %2
  %4 = lshr i32 %3, 8
  %5 = trunc i32 %4 to i8
  %6 = xor i8 %5, -1
  %7 = add i8 %0, 65
  %8 = and i8 %7, %6
  %9 = add nuw nsw i32 %2, 65510
  %10 = sub nsw i32 51, %2
  %11 = or i32 %9, %10
  %12 = lshr i32 %11, 8
  %13 = trunc i32 %12 to i8
  %14 = xor i8 %13, -1
  %15 = add i8 %0, 71
  %16 = and i8 %15, %14
  %17 = or i8 %16, %8
  %18 = add nuw nsw i32 %2, 65484
  %19 = sub nsw i32 61, %2
  %20 = or i32 %18, %19
  %21 = lshr i32 %20, 8
  %22 = trunc i32 %21 to i8
  %23 = xor i8 %22, -1
  %24 = add i8 %0, -4
  %25 = and i8 %24, %23
  %26 = or i8 %17, %25
  %27 = add nuw nsw i32 %2, 16322
  %28 = sub nsw i32 62, %2
  %29 = or i32 %27, %28
  %30 = lshr i32 %29, 8
  %31 = trunc i32 %30 to i8
  %32 = and i8 %31, 43
  %33 = xor i8 %32, 43
  %34 = or i8 %26, %33
  %35 = add nuw nsw i32 %2, 16321
  %36 = sub nsw i32 63, %2
  %37 = or i32 %35, %36
  %38 = lshr i32 %37, 8
  %39 = trunc i32 %38 to i8
  %40 = and i8 %39, 47
  %41 = xor i8 %40, 47
  %42 = or i8 %34, %41
  ret i8 %42
}